target datalayout = "e-m:e-p270:32:32-p271:32:32-p272:64:64-i64:64-i128:128-f80:128-n8:16:32:64-S128"
target triple = "x86_64-pc-linux-gnu"

%struct._packet_info = type { ptr, ptr, i32, i32, %struct.nstime_t, %struct.nstime_t, %struct.nstime_t, i8, ptr, ptr, ptr, ptr, %struct._address, %struct._address, %struct._address, %struct._address, %struct._address, %struct._address, i32, ptr, i8, [3 x i8], %struct.anon.1, i32, i32, i32, i32, ptr, i8, ptr, ptr, i16, i16, i32, i32, i16, i32, i32, ptr, ptr, ptr, i8, i8, i16, i16, i16, i32, i16, i16, ptr, ptr, ptr, ptr, ptr, i32, i32 }
%struct.nstime_t = type { i64, i32 }
%struct._address = type { i32, i32, ptr, ptr }
%struct.anon.1 = type { i8, [3 x i8] }
%struct._frame_data = type <{ i32, i32, i32, i32, i32, [4 x i8], i64, ptr, ptr, ptr, i8, i16, [5 x i8], %struct.nstime_t, %struct.nstime_t, i32, i32 }>

@hf_amqp_method_basic_ack_delivery_tag = internal global i32 0, align 4
@hf_amqp_method_basic_ack_multiple = internal global i32 0, align 4

; Function Attrs: null_pointer_is_valid sspstrong uwtable
define internal i32 @dissect_amqp_0_9_method_basic_ack(i16 noundef zeroext %0, ptr noundef %1, ptr noundef %2, i32 noundef %3, ptr noundef %4) #0 {
  %6 = alloca i16, align 2
  %7 = alloca ptr, align 8
  %8 = alloca ptr, align 8
  %9 = alloca i32, align 4
  %10 = alloca ptr, align 8
  %11 = alloca i64, align 8
  %12 = alloca i32, align 4
  store i16 %0, ptr %6, align 2
  store ptr %1, ptr %7, align 8
  store ptr %2, ptr %8, align 8
  store i32 %3, ptr %9, align 4
  store ptr %4, ptr %10, align 8
  call void @llvm.lifetime.start.p0(i64 8, ptr %11) #11
  call void @llvm.lifetime.start.p0(i64 4, ptr %12) #11
  %13 = load ptr, ptr %10, align 8
  %14 = load i32, ptr @hf_amqp_method_basic_ack_delivery_tag, align 4
  %15 = load ptr, ptr %7, align 8
  %16 = load i32, ptr %9, align 4
  %17 = call ptr @proto_tree_add_item(ptr noundef %13, i32 noundef %14, ptr noundef %15, i32 noundef %16, i32 noundef 8, i32 noundef 0)
  %18 = load ptr, ptr %7, align 8
  %19 = load i32, ptr %9, align 4
  %20 = call i64 @tvb_get_ntoh64(ptr noundef %18, i32 noundef %19)
  store i64 %20, ptr %11, align 8
  %21 = load i32, ptr %9, align 4
  %22 = add i32 %21, 8
  store i32 %22, ptr %9, align 4
  %23 = load ptr, ptr %10, align 8
  %24 = load i32, ptr @hf_amqp_method_basic_ack_multiple, align 4
  %25 = load ptr, ptr %7, align 8
  %26 = load i32, ptr %9, align 4
  %27 = call ptr @proto_tree_add_item(ptr noundef %23, i32 noundef %24, ptr noundef %25, i32 noundef %26, i32 noundef 1, i32 noundef 0)
  %28 = load ptr, ptr %7, align 8
  %29 = load i32, ptr %9, align 4
  %30 = call zeroext i8 @tvb_get_uint8(ptr noundef %28, i32 noundef %29)
  %31 = zext i8 %30 to i32
  %32 = and i32 %31, 1
  store i32 %32, ptr %12, align 4
  %33 = load ptr, ptr %8, align 8
  %34 = getelementptr inbounds nuw %struct._packet_info, ptr %33, i32 0, i32 8
  %35 = load ptr, ptr %34, align 8
  %36 = getelementptr inbounds nuw %struct._frame_data, ptr %35, i32 0, i32 11
  %37 = load i16, ptr %36, align 1
  %38 = lshr i16 %37, 3
  %39 = and i16 %38, 1
  %40 = zext i16 %39 to i32
  %41 = icmp ne i32 %40, 0
  br i1 %41, label %49, label %42

42:                                               ; preds = %5
  %43 = load ptr, ptr %7, align 8
  %44 = load ptr, ptr %8, align 8
  %45 = load i16, ptr %6, align 2
  %46 = load i64, ptr %11, align 8
  %47 = load i32, ptr %12, align 4
  %48 = icmp ne i32 %47, 0
  call void @record_delivery_ack(ptr noundef %43, ptr noundef %44, i16 noundef zeroext %45, i64 noundef %46, i1 noundef zeroext %48)
  br label %49

49:                                               ; preds = %42, %5
  %50 = load i32, ptr %9, align 4
  call void @llvm.lifetime.end.p0(i64 4, ptr %12) #11
  call void @llvm.lifetime.end.p0(i64 8, ptr %11) #11
  ret i32 %50
}