; Function Attrs: null_pointer_is_valid sspstrong uwtable
define internal fastcc void @dissect_amqp_0_9_method_basic_ack(i16 noundef zeroext %0, ptr noundef %1, ptr noundef %2, ptr noundef %3) unnamed_addr #0 {
  %5 = load i32, ptr @hf_amqp_method_basic_ack_delivery_tag, align 4
  %6 = tail call ptr @proto_tree_add_item(ptr noundef %3, i32 noundef %5, ptr noundef %1, i32 noundef 11, i32 noundef 8, i32 noundef 0)
  %7 = tail call i64 @tvb_get_ntoh64(ptr noundef %1, i32 noundef 11)
  %8 = load i32, ptr @hf_amqp_method_basic_ack_multiple, align 4
  %9 = tail call ptr @proto_tree_add_item(ptr noundef %3, i32 noundef %8, ptr noundef %1, i32 noundef 19, i32 noundef 1, i32 noundef 0)
  %10 = tail call zeroext i8 @tvb_get_uint8(ptr noundef %1, i32 noundef 19)
  %11 = getelementptr inbounds nuw i8, ptr %2, i64 80
  %12 = load ptr, ptr %11, align 8
  %13 = getelementptr inbounds nuw i8, ptr %12, i64 57
  %14 = load i16, ptr %13, align 1
  %15 = and i16 %14, 8
  %.not = icmp eq i16 %15, 0
  br i1 %.not, label %16, label %19

16:                                               ; preds = %4
  %17 = and i8 %10, 1
  %18 = icmp ne i8 %17, 0
  tail call fastcc void @record_delivery_ack(ptr noundef %1, ptr noundef %2, i16 noundef zeroext %0, i64 noundef %7, i1 noundef zeroext %18)
  br label %19

19:                                               ; preds = %16, %4
  ret void
}